target datalayout = "e-m:e-p270:32:32-p271:32:32-p272:64:64-i64:64-i128:128-f80:128-n8:16:32:64-S128"
target triple = "x86_64-pc-linux-gnu"

%"struct.duckdb_brotli::MetaBlockSplit" = type { %"struct.duckdb_brotli::BlockSplit", %"struct.duckdb_brotli::BlockSplit", %"struct.duckdb_brotli::BlockSplit", ptr, i64, ptr, i64, ptr, i64, ptr, i64, ptr, i64 }
%"struct.duckdb_brotli::BlockSplit" = type { i64, i64, ptr, ptr, i64, i64 }
%"struct.duckdb_brotli::HistogramLiteral" = type { [256 x i32], i64, double }
%"struct.duckdb_brotli::HistogramDistance" = type { [544 x i32], i64, double }
%"struct.duckdb_brotli::HistogramCommand" = type { [704 x i32], i64, double }

; Function Attrs: mustprogress uwtable
define void @_ZN13duckdb_brotli24BrotliOptimizeHistogramsEjPNS_14MetaBlockSplitE(i32 noundef %0, ptr noundef %1) #0 {
  %3 = alloca i32, align 4
  %4 = alloca ptr, align 8
  %5 = alloca [704 x i8], align 16
  %6 = alloca i64, align 8
  store i32 %0, ptr %3, align 4, !tbaa !8
  store ptr %1, ptr %4, align 8, !tbaa !34
  call void @llvm.lifetime.start.p0(i64 704, ptr %5) #9
  call void @llvm.lifetime.start.p0(i64 8, ptr %6) #9
  store i64 0, ptr %6, align 8, !tbaa !26
  br label %7

7:                                                ; preds = %22, %2
  %8 = load i64, ptr %6, align 8, !tbaa !26
  %9 = load ptr, ptr %4, align 8, !tbaa !34
  %10 = getelementptr inbounds nuw %"struct.duckdb_brotli::MetaBlockSplit", ptr %9, i32 0, i32 8
  %11 = load i64, ptr %10, align 8, !tbaa !75
  %12 = icmp ult i64 %8, %11
  br i1 %12, label %13, label %25

13:                                               ; preds = %7
  %14 = load ptr, ptr %4, align 8, !tbaa !34
  %15 = getelementptr inbounds nuw %"struct.duckdb_brotli::MetaBlockSplit", ptr %14, i32 0, i32 7
  %16 = load ptr, ptr %15, align 8, !tbaa !76
  %17 = load i64, ptr %6, align 8, !tbaa !26
  %18 = getelementptr inbounds nuw %"struct.duckdb_brotli::HistogramLiteral", ptr %16, i64 %17
  %19 = getelementptr inbounds nuw %"struct.duckdb_brotli::HistogramLiteral", ptr %18, i32 0, i32 0
  %20 = getelementptr inbounds [256 x i32], ptr %19, i64 0, i64 0
  %21 = getelementptr inbounds [704 x i8], ptr %5, i64 0, i64 0
  call void @_ZN13duckdb_brotli33BrotliOptimizeHuffmanCountsForRleEmPjPh(i64 noundef 256, ptr noundef %20, ptr noundef %21)
  br label %22

22:                                               ; preds = %13
  %23 = load i64, ptr %6, align 8, !tbaa !26
  %24 = add i64 %23, 1
  store i64 %24, ptr %6, align 8, !tbaa !26
  br label %7, !llvm.loop !104

25:                                               ; preds = %7
  store i64 0, ptr %6, align 8, !tbaa !26
  br label %26

26:                                               ; preds = %41, %25
  %27 = load i64, ptr %6, align 8, !tbaa !26
  %28 = load ptr, ptr %4, align 8, !tbaa !34
  %29 = getelementptr inbounds nuw %"struct.duckdb_brotli::MetaBlockSplit", ptr %28, i32 0, i32 10
  %30 = load i64, ptr %29, align 8, !tbaa !71
  %31 = icmp ult i64 %27, %30
  br i1 %31, label %32, label %44

32:                                               ; preds = %26
  %33 = load ptr, ptr %4, align 8, !tbaa !34
  %34 = getelementptr inbounds nuw %"struct.duckdb_brotli::MetaBlockSplit", ptr %33, i32 0, i32 9
  %35 = load ptr, ptr %34, align 8, !tbaa !72
  %36 = load i64, ptr %6, align 8, !tbaa !26
  %37 = getelementptr inbounds nuw %"struct.duckdb_brotli::HistogramCommand", ptr %35, i64 %36
  %38 = getelementptr inbounds nuw %"struct.duckdb_brotli::HistogramCommand", ptr %37, i32 0, i32 0
  %39 = getelementptr inbounds [704 x i32], ptr %38, i64 0, i64 0
  %40 = getelementptr inbounds [704 x i8], ptr %5, i64 0, i64 0
  call void @_ZN13duckdb_brotli33BrotliOptimizeHuffmanCountsForRleEmPjPh(i64 noundef 704, ptr noundef %39, ptr noundef %40)
  br label %41

41:                                               ; preds = %32
  %42 = load i64, ptr %6, align 8, !tbaa !26
  %43 = add i64 %42, 1
  store i64 %43, ptr %6, align 8, !tbaa !26
  br label %26, !llvm.loop !105

44:                                               ; preds = %26
  store i64 0, ptr %6, align 8, !tbaa !26
  br label %45

45:                                               ; preds = %62, %44
  %46 = load i64, ptr %6, align 8, !tbaa !26
  %47 = load ptr, ptr %4, align 8, !tbaa !34
  %48 = getelementptr inbounds nuw %"struct.duckdb_brotli::MetaBlockSplit", ptr %47, i32 0, i32 12
  %49 = load i64, ptr %48, align 8, !tbaa !81
  %50 = icmp ult i64 %46, %49
  br i1 %50, label %51, label %65

51:                                               ; preds = %45
  %52 = load i32, ptr %3, align 4, !tbaa !8
  %53 = zext i32 %52 to i64
  %54 = load ptr, ptr %4, align 8, !tbaa !34
  %55 = getelementptr inbounds nuw %"struct.duckdb_brotli::MetaBlockSplit", ptr %54, i32 0, i32 11
  %56 = load ptr, ptr %55, align 8, !tbaa !82
  %57 = load i64, ptr %6, align 8, !tbaa !26
  %58 = getelementptr inbounds nuw %"struct.duckdb_brotli::HistogramDistance", ptr %56, i64 %57
  %59 = getelementptr inbounds nuw %"struct.duckdb_brotli::HistogramDistance", ptr %58, i32 0, i32 0
  %60 = getelementptr inbounds [544 x i32], ptr %59, i64 0, i64 0
  %61 = getelementptr inbounds [704 x i8], ptr %5, i64 0, i64 0
  call void @_ZN13duckdb_brotli33BrotliOptimizeHuffmanCountsForRleEmPjPh(i64 noundef %53, ptr noundef %60, ptr noundef %61)
  br label %62

62:                                               ; preds = %51
  %63 = load i64, ptr %6, align 8, !tbaa !26
  %64 = add i64 %63, 1
  store i64 %64, ptr %6, align 8, !tbaa !26
  br label %45, !llvm.loop !106

65:                                               ; preds = %45
  call void @llvm.lifetime.end.p0(i64 8, ptr %6) #9
  call void @llvm.lifetime.end.p0(i64 704, ptr %5) #9
  ret void
}