; Function Attrs: mustprogress uwtable
define void @_ZN13duckdb_brotli24BrotliOptimizeHistogramsEjPNS_14MetaBlockSplitE(i32 noundef %0, ptr noundef readonly captures(none) %1) local_unnamed_addr #2 {
  %3 = alloca [704 x i8], align 16
  call void @llvm.lifetime.start.p0(i64 704, ptr nonnull %3) #10
  %4 = getelementptr inbounds nuw i8, ptr %1, i64 184
  %5 = load i64, ptr %4, align 8, !tbaa !74
  %.not = icmp eq i64 %5, 0
  br i1 %.not, label %.preheader15, label %.lr.ph

.lr.ph:                                           ; preds = %2
  %6 = getelementptr inbounds nuw i8, ptr %1, i64 176
  br label %10

.preheader15:                                     ; preds = %10, %2
  %7 = getelementptr inbounds nuw i8, ptr %1, i64 200
  %8 = load i64, ptr %7, align 8, !tbaa !67
  %.not21 = icmp eq i64 %8, 0
  br i1 %.not21, label %.preheader, label %.lr.ph18

.lr.ph18:                                         ; preds = %.preheader15
  %9 = getelementptr inbounds nuw i8, ptr %1, i64 192
  br label %20

10:                                               ; preds = %.lr.ph, %10
  %.016 = phi i64 [ 0, %.lr.ph ], [ %13, %10 ]
  %11 = load ptr, ptr %6, align 8, !tbaa !75
  %12 = getelementptr inbounds nuw %"struct.duckdb_brotli::HistogramLiteral", ptr %11, i64 %.016
  call void @_ZN13duckdb_brotli33BrotliOptimizeHuffmanCountsForRleEmPjPh(i64 noundef 256, ptr noundef %12, ptr noundef nonnull %3)
  %13 = add nuw i64 %.016, 1
  %14 = load i64, ptr %4, align 8, !tbaa !74
  %15 = icmp ult i64 %13, %14
  br i1 %15, label %10, label %.preheader15, !llvm.loop !130

.preheader:                                       ; preds = %20, %.preheader15
  %16 = getelementptr inbounds nuw i8, ptr %1, i64 216
  %17 = load i64, ptr %16, align 8, !tbaa !80
  %.not22 = icmp eq i64 %17, 0
  br i1 %.not22, label %._crit_edge, label %.lr.ph20

.lr.ph20:                                         ; preds = %.preheader
  %18 = zext i32 %0 to i64
  %19 = getelementptr inbounds nuw i8, ptr %1, i64 208
  br label %26

20:                                               ; preds = %.lr.ph18, %20
  %.117 = phi i64 [ 0, %.lr.ph18 ], [ %23, %20 ]
  %21 = load ptr, ptr %9, align 8, !tbaa !68
  %22 = getelementptr inbounds nuw %"struct.duckdb_brotli::HistogramCommand", ptr %21, i64 %.117
  call void @_ZN13duckdb_brotli33BrotliOptimizeHuffmanCountsForRleEmPjPh(i64 noundef 704, ptr noundef %22, ptr noundef nonnull %3)
  %23 = add nuw i64 %.117, 1
  %24 = load i64, ptr %7, align 8, !tbaa !67
  %25 = icmp ult i64 %23, %24
  br i1 %25, label %20, label %.preheader, !llvm.loop !131

26:                                               ; preds = %.lr.ph20, %26
  %.219 = phi i64 [ 0, %.lr.ph20 ], [ %29, %26 ]
  %27 = load ptr, ptr %19, align 8, !tbaa !81
  %28 = getelementptr inbounds nuw %"struct.duckdb_brotli::HistogramDistance", ptr %27, i64 %.219
  call void @_ZN13duckdb_brotli33BrotliOptimizeHuffmanCountsForRleEmPjPh(i64 noundef %18, ptr noundef %28, ptr noundef nonnull %3)
  %29 = add nuw i64 %.219, 1
  %30 = load i64, ptr %16, align 8, !tbaa !80
  %31 = icmp ult i64 %29, %30
  br i1 %31, label %26, label %._crit_edge, !llvm.loop !132

._crit_edge:                                      ; preds = %26, %.preheader
  call void @llvm.lifetime.end.p0(i64 704, ptr nonnull %3) #10
  ret void
}